; Function Attrs: mustprogress nofree norecurse nosync nounwind willreturn memory(argmem: write) uwtable
define void @_ZN3nix9PathLocksC2Ev(ptr noundef nonnull align 8 dereferenceable(25) %0) unnamed_addr #11 align 2 {
  %2 = getelementptr inbounds i8, ptr %0, i64 8
  store ptr %0, ptr %2, align 8
  store ptr %0, ptr %0, align 8
  %3 = getelementptr inbounds i8, ptr %0, i64 16
  store i64 0, ptr %3, align 8
  %4 = getelementptr inbounds i8, ptr %0, i64 24
  store i8 0, ptr %4, align 8
  ret void
}